; Function Attrs: mustprogress uwtable
define void @_ZN7openvdb5v11_011compression4Page10decompressERKSt10unique_ptrIA_cSt14default_deleteIS4_EE(ptr nocapture noundef nonnull align 8 dereferenceable(17) %this, ptr nocapture noundef nonnull readonly align 8 dereferenceable(8) %temp) local_unnamed_addr #4 align 2 {
entry:
  %bytes.i = alloca i64, align 8
  %_1.i = alloca i64, align 8
  %_2.i = alloca i64, align 8
  %0 = load ptr, ptr %temp, align 8
  call void @llvm.lifetime.start.p0(i64 8, ptr nonnull %bytes.i)
  call void @llvm.lifetime.start.p0(i64 8, ptr nonnull %_1.i)
  call void @llvm.lifetime.start.p0(i64 8, ptr nonnull %_2.i)
  call void @blosc_cbuffer_sizes(ptr noundef %0, ptr noundef nonnull %bytes.i, ptr noundef nonnull %_1.i, ptr noundef nonnull %_2.i)
  %1 = load i64, ptr %bytes.i, align 8
  call void @llvm.lifetime.end.p0(i64 8, ptr nonnull %bytes.i)
  call void @llvm.lifetime.end.p0(i64 8, ptr nonnull %_1.i)
  call void @llvm.lifetime.end.p0(i64 8, ptr nonnull %_2.i)
  %add = shl i64 %1, 1
  %mData = getelementptr inbounds i8, ptr %this, i64 8
  %call3 = call noalias noundef nonnull ptr @_Znam(i64 noundef %add) #19
  %2 = load ptr, ptr %mData, align 8
  store ptr %call3, ptr %mData, align 8
  %tobool.not.i.i = icmp eq ptr %2, null
  br i1 %tobool.not.i.i, label %_ZNSt10unique_ptrIA_cSt14default_deleteIS0_EE5resetIPcvEEvT_.exit, label %_ZNKSt14default_deleteIA_cEclIcEENSt9enable_ifIXsr14is_convertibleIPA_T_PS0_EE5valueEvE4typeEPS4_.exit.i.i

_ZNKSt14default_deleteIA_cEclIcEENSt9enable_ifIXsr14is_convertibleIPA_T_PS0_EE5valueEvE4typeEPS4_.exit.i.i: ; preds = %entry
  call void @_ZdaPv(ptr noundef nonnull %2) #20
  %.pre = load ptr, ptr %mData, align 8
  br label %_ZNSt10unique_ptrIA_cSt14default_deleteIS0_EE5resetIPcvEEvT_.exit

_ZNSt10unique_ptrIA_cSt14default_deleteIS0_EE5resetIPcvEEvT_.exit: ; preds = %entry, %_ZNKSt14default_deleteIA_cEclIcEENSt9enable_ifIXsr14is_convertibleIPA_T_PS0_EE5valueEvE4typeEPS4_.exit.i.i
  %3 = phi ptr [ %call3, %entry ], [ %.pre, %_ZNKSt14default_deleteIA_cEclIcEENSt9enable_ifIXsr14is_convertibleIPA_T_PS0_EE5valueEvE4typeEPS4_.exit.i.i ]
  %4 = load ptr, ptr %temp, align 8
  call void @_ZN7openvdb5v11_011compression15bloscDecompressEPcmmPKc(ptr noundef %3, i64 noundef %1, i64 noundef %add, ptr noundef %4)
  ret void
}